ccollections
defaultdict
p0
(c__builtin__
dict
p1
tp2
Rp3
I1
(dp4
I1
F0.6923
sI2
F0.7644
sI3
F0.8102
sI4
F0.8319
sI5
F0.8458
sI6
F0.8562
sI7
F0.8637
sI8
F0.8729
sI9
F0.8761
ssI2
(dp5
I1
F0.5673
sI2
F0.63
sI3
F0.6956
sI4
F0.7298
sI5
F0.7455
sI6
F0.7577
sI7
F0.7694
sI8
F0.7806
sI9
F0.7843
ssI3
(dp6
I1
F0.67
sI2
F0.7382
sI3
F0.789
sI4
F0.8177
sI5
F0.8311
sI6
F0.8436
sI7
F0.858
sI8
F0.866
sI9
F0.8685
ssI4
(dp7
I1
F0.5636
sI2
F0.6457
sI3
F0.7144
sI4
F0.7498
sI5
F0.7686
sI6
F0.7838
sI7
F0.7993
sI8
F0.8105
sI9
F0.8152
ssI5
(dp8
I1
F0.6347
sI2
F0.712
sI3
F0.7695
sI4
F0.8038
sI5
F0.8203
sI6
F0.8328
sI7
F0.8503
sI8
F0.8576
sI9
F0.8615
ssI6
(dp9
I1
F0.5433
sI2
F0.6363
sI3
F0.7106
sI4
F0.7516
sI5
F0.7694
sI6
F0.7861
sI7
F0.802
sI8
F0.8146
sI9
F0.8193
ssI7
(dp10
I1
F0.6046
sI2
F0.6906
sI3
F0.7522
sI4
F0.7927
sI5
F0.8081
sI6
F0.8224
sI7
F0.8366
sI8
F0.8454
sI9
F0.8496
ssI8
(dp11
I1
F0.5324
sI2
F0.6248
sI3
F0.7009
sI4
F0.7466
sI5
F0.7665
sI6
F0.7817
sI7
F0.8002
sI8
F0.8132
sI9
F0.8197
ssI9
(dp12
I1
F0.5744
sI2
F0.6687
sI3
F0.7339
sI4
F0.7806
sI5
F0.7966
sI6
F0.8137
sI7
F0.8293
sI8
F0.8409
sI9
F0.8431
ss.